; Function Attrs: nounwind uwtable
define void @lv_iter_make_peekable(ptr noundef %0, i32 noundef %1) local_unnamed_addr #0 {
  %.not = icmp eq ptr %0, null
  br i1 %.not, label %.preheader, label %3

.preheader:                                       ; preds = %2, %.preheader
  br label %.preheader

3:                                                ; preds = %2
  %4 = icmp eq i32 %1, 0
  br i1 %4, label %12, label %5

5:                                                ; preds = %3
  %6 = getelementptr inbounds nuw i8, ptr %0, i64 32
  %7 = load ptr, ptr %6, align 8, !tbaa !13
  %.not9 = icmp eq ptr %7, null
  br i1 %.not9, label %8, label %12

8:                                                ; preds = %5
  %9 = getelementptr inbounds nuw i8, ptr %0, i64 8
  %10 = load i32, ptr %9, align 8, !tbaa !9
  %11 = tail call ptr @lv_circle_buf_create(i32 noundef %1, i32 noundef %10) #4
  store ptr %11, ptr %6, align 8, !tbaa !13
  %.not10 = icmp eq ptr %11, null
  br i1 %.not10, label %.preheader11, label %12

.preheader11:                                     ; preds = %8, %.preheader11
  br label %.preheader11

12:                                               ; preds = %8, %5, %3
  ret void
}